; Function Attrs: nounwind uwtable
define hidden void @lexbor_avl_foreach_recursion(ptr noundef %0, ptr noundef %1, ptr nocapture noundef readonly %2, ptr noundef %3) local_unnamed_addr #0 {
  %5 = icmp eq ptr %1, null
  br i1 %5, label %tailrecurse._crit_edge, label %tailrecurse

tailrecurse:                                      ; preds = %4, %tailrecurse
  %.tr1316 = phi ptr [ %10, %tailrecurse ], [ %1, %4 ]
  %6 = tail call i32 %2(ptr noundef %0, ptr noundef null, ptr noundef nonnull %.tr1316, ptr noundef %3) #8
  %7 = getelementptr inbounds i8, ptr %.tr1316, i64 24
  %8 = load ptr, ptr %7, align 8
  tail call void @lexbor_avl_foreach_recursion(ptr noundef %0, ptr noundef %8, ptr noundef %2, ptr noundef %3)
  %9 = getelementptr inbounds i8, ptr %.tr1316, i64 32
  %10 = load ptr, ptr %9, align 8
  %11 = icmp eq ptr %10, null
  br i1 %11, label %tailrecurse._crit_edge, label %tailrecurse

tailrecurse._crit_edge:                           ; preds = %tailrecurse, %4
  ret void
}